target datalayout = "e-m:e-p270:32:32-p271:32:32-p272:64:64-i64:64-i128:128-f80:128-n8:16:32:64-S128"
target triple = "x86_64-pc-linux-gnu"

%struct.newhope_poly_st = type { [1024 x i16] }

; Function Attrs: nounwind uwtable
define hidden void @NEWHOPE_keygen(ptr noundef %0, ptr noundef %1) #0 {
  %3 = alloca ptr, align 8
  %4 = alloca ptr, align 8
  %5 = alloca %struct.newhope_poly_st, align 32
  %6 = alloca ptr, align 8
  %7 = alloca %struct.newhope_poly_st, align 32
  %8 = alloca %struct.newhope_poly_st, align 32
  %9 = alloca %struct.newhope_poly_st, align 32
  store ptr %0, ptr %3, align 8, !tbaa !11
  store ptr %1, ptr %4, align 8, !tbaa !6
  %10 = load ptr, ptr %4, align 8, !tbaa !6
  call void @newhope_poly_getnoise(ptr noundef %10)
  %11 = load ptr, ptr %4, align 8, !tbaa !6
  call void @newhope_poly_ntt(ptr noundef %11)
  call void @llvm.lifetime.start.p0(i64 2048, ptr %5) #6
  call void @llvm.lifetime.start.p0(i64 8, ptr %6) #6
  %12 = load ptr, ptr %3, align 8, !tbaa !11
  %13 = getelementptr inbounds i8, ptr %12, i64 1792
  store ptr %13, ptr %6, align 8, !tbaa !11
  %14 = load ptr, ptr %6, align 8, !tbaa !11
  %15 = call i32 @RAND_bytes(ptr noundef %14, i64 noundef 32)
  %16 = load ptr, ptr %6, align 8, !tbaa !11
  call void @newhope_poly_uniform(ptr noundef %5, ptr noundef %16)
  call void @llvm.lifetime.start.p0(i64 2048, ptr %7) #6
  call void @newhope_poly_getnoise(ptr noundef %7)
  call void @newhope_poly_ntt(ptr noundef %7)
  call void @llvm.lifetime.start.p0(i64 2048, ptr %8) #6
  call void @llvm.lifetime.start.p0(i64 2048, ptr %9) #6
  %17 = load ptr, ptr %4, align 8, !tbaa !6
  call void @newhope_poly_pointwise(ptr noundef %8, ptr noundef %17, ptr noundef %5)
  call void @newhope_poly_add(ptr noundef %9, ptr noundef %7, ptr noundef %8)
  %18 = load ptr, ptr %3, align 8, !tbaa !11
  call void @newhope_poly_tobytes(ptr noundef %18, ptr noundef %9)
  call void @llvm.lifetime.end.p0(i64 2048, ptr %9) #6
  call void @llvm.lifetime.end.p0(i64 2048, ptr %8) #6
  call void @llvm.lifetime.end.p0(i64 2048, ptr %7) #6
  call void @llvm.lifetime.end.p0(i64 8, ptr %6) #6
  call void @llvm.lifetime.end.p0(i64 2048, ptr %5) #6
  ret void
}