; Function Attrs: nounwind uwtable
define hidden void @NEWHOPE_keygen(ptr noundef %0, ptr noundef %1) local_unnamed_addr #4 {
  %3 = alloca %struct.newhope_poly_st, align 32
  %4 = alloca %struct.newhope_poly_st, align 32
  %5 = alloca %struct.newhope_poly_st, align 32
  %6 = alloca %struct.newhope_poly_st, align 32
  tail call void @newhope_poly_getnoise(ptr noundef %1) #8
  tail call void @newhope_poly_ntt(ptr noundef %1) #8
  call void @llvm.lifetime.start.p0(i64 2048, ptr nonnull %3) #8
  %7 = getelementptr inbounds nuw i8, ptr %0, i64 1792
  %8 = tail call i32 @RAND_bytes(ptr noundef nonnull %7, i64 noundef 32) #8
  call void @newhope_poly_uniform(ptr noundef nonnull %3, ptr noundef nonnull %7) #8
  call void @llvm.lifetime.start.p0(i64 2048, ptr nonnull %4) #8
  call void @newhope_poly_getnoise(ptr noundef nonnull %4) #8
  call void @newhope_poly_ntt(ptr noundef nonnull %4) #8
  call void @llvm.lifetime.start.p0(i64 2048, ptr nonnull %5) #8
  call void @llvm.lifetime.start.p0(i64 2048, ptr nonnull %6) #8
  call void @newhope_poly_pointwise(ptr noundef nonnull %5, ptr noundef %1, ptr noundef nonnull %3) #8
  call void @newhope_poly_add(ptr noundef nonnull %6, ptr noundef nonnull %4, ptr noundef nonnull %5) #8
  call void @newhope_poly_tobytes(ptr noundef %0, ptr noundef nonnull %6) #8
  call void @llvm.lifetime.end.p0(i64 2048, ptr nonnull %6) #8
  call void @llvm.lifetime.end.p0(i64 2048, ptr nonnull %5) #8
  call void @llvm.lifetime.end.p0(i64 2048, ptr nonnull %4) #8
  call void @llvm.lifetime.end.p0(i64 2048, ptr nonnull %3) #8
  ret void
}